target datalayout = "e-m:e-p270:32:32-p271:32:32-p272:64:64-i64:64-i128:128-f80:128-n8:16:32:64-S128"
target triple = "x86_64-pc-linux-gnu"

; Function Attrs: mustprogress nounwind uwtable
define ptr @uprv_aestrncpy_77(ptr noundef %0, ptr noundef %1, i32 noundef %2) #0 {
  %4 = alloca ptr, align 8
  %5 = alloca ptr, align 8
  %6 = alloca i32, align 4
  %7 = alloca ptr, align 8
  store ptr %0, ptr %4, align 8, !tbaa !3
  store ptr %1, ptr %5, align 8, !tbaa !3
  store i32 %2, ptr %6, align 4, !tbaa !10
  call void @llvm.lifetime.start.p0(i64 8, ptr %7) #7
  %8 = load ptr, ptr %4, align 8, !tbaa !3
  store ptr %8, ptr %7, align 8, !tbaa !3
  %9 = load i32, ptr %6, align 4, !tbaa !10
  %10 = icmp eq i32 %9, -1
  br i1 %10, label %11, label %16

11:                                               ; preds = %3
  %12 = load ptr, ptr %5, align 8, !tbaa !3
  %13 = call i64 @strlen(ptr noundef %12) #8
  %14 = add i64 %13, 1
  %15 = trunc i64 %14 to i32
  store i32 %15, ptr %6, align 4, !tbaa !10
  br label %16

16:                                               ; preds = %11, %3
  br label %17

17:                                               ; preds = %26, %16
  %18 = load ptr, ptr %5, align 8, !tbaa !3
  %19 = load i8, ptr %18, align 1, !tbaa !12
  %20 = icmp ne i8 %19, 0
  br i1 %20, label %21, label %24

21:                                               ; preds = %17
  %22 = load i32, ptr %6, align 4, !tbaa !10
  %23 = icmp sgt i32 %22, 0
  br label %24

24:                                               ; preds = %21, %17
  %25 = phi i1 [ false, %17 ], [ %23, %21 ]
  br i1 %25, label %26, label %37

26:                                               ; preds = %24
  %27 = load ptr, ptr %5, align 8, !tbaa !3
  %28 = getelementptr inbounds nuw i8, ptr %27, i32 1
  store ptr %28, ptr %5, align 8, !tbaa !3
  %29 = load i8, ptr %27, align 1, !tbaa !12
  %30 = zext i8 %29 to i64
  %31 = getelementptr inbounds nuw [256 x i8], ptr @_ZL15asciiFromEbcdic, i64 0, i64 %30
  %32 = load i8, ptr %31, align 1, !tbaa !12
  %33 = load ptr, ptr %4, align 8, !tbaa !3
  %34 = getelementptr inbounds nuw i8, ptr %33, i32 1
  store ptr %34, ptr %4, align 8, !tbaa !3
  store i8 %32, ptr %33, align 1, !tbaa !12
  %35 = load i32, ptr %6, align 4, !tbaa !10
  %36 = add nsw i32 %35, -1
  store i32 %36, ptr %6, align 4, !tbaa !10
  br label %17, !llvm.loop !32

37:                                               ; preds = %24
  br label %38

38:                                               ; preds = %41, %37
  %39 = load i32, ptr %6, align 4, !tbaa !10
  %40 = icmp sgt i32 %39, 0
  br i1 %40, label %41, label %46

41:                                               ; preds = %38
  %42 = load ptr, ptr %4, align 8, !tbaa !3
  %43 = getelementptr inbounds nuw i8, ptr %42, i32 1
  store ptr %43, ptr %4, align 8, !tbaa !3
  store i8 0, ptr %42, align 1, !tbaa !12
  %44 = load i32, ptr %6, align 4, !tbaa !10
  %45 = add nsw i32 %44, -1
  store i32 %45, ptr %6, align 4, !tbaa !10
  br label %38, !llvm.loop !33

46:                                               ; preds = %38
  %47 = load ptr, ptr %7, align 8, !tbaa !3
  call void @llvm.lifetime.end.p0(i64 8, ptr %7) #7
  ret ptr %47
}