; Function Attrs: mustprogress nofree nounwind memory(argmem: readwrite) uwtable
define noundef ptr @uprv_aestrncpy_77(ptr noundef returned writeonly %0, ptr noundef readonly captures(none) %1, i32 noundef %2) local_unnamed_addr #8 {
  %4 = icmp eq i32 %2, -1
  br i1 %4, label %5, label %9

5:                                                ; preds = %3
  %6 = tail call i64 @strlen(ptr noundef nonnull dereferenceable(1) %1) #12
  %7 = trunc i64 %6 to i32
  %8 = add i32 %7, 1
  br label %9

9:                                                ; preds = %5, %3
  %.011 = phi i32 [ %8, %5 ], [ %2, %3 ]
  %10 = load i8, ptr %1, align 1, !tbaa !3
  %11 = icmp ne i8 %10, 0
  %12 = icmp sgt i32 %.011, 0
  %13 = select i1 %11, i1 %12, i1 false
  br i1 %13, label %.lr.ph, label %.preheader

.preheader:                                       ; preds = %.lr.ph, %9
  %.112.lcssa = phi i32 [ %.011, %9 ], [ %22, %.lr.ph ]
  %.0.lcssa = phi ptr [ %0, %9 ], [ %21, %.lr.ph ]
  %14 = icmp sgt i32 %.112.lcssa, 0
  br i1 %14, label %.lr.ph22.preheader, label %._crit_edge

.lr.ph22.preheader:                               ; preds = %.preheader
  %15 = zext nneg i32 %.112.lcssa to i64
  tail call void @llvm.memset.p0.i64(ptr align 1 %.0.lcssa, i8 0, i64 %15, i1 false), !tbaa !3
  br label %._crit_edge

.lr.ph:                                           ; preds = %9, %.lr.ph
  %16 = phi i8 [ %23, %.lr.ph ], [ %10, %9 ]
  %.018 = phi ptr [ %21, %.lr.ph ], [ %0, %9 ]
  %.11217 = phi i32 [ %22, %.lr.ph ], [ %.011, %9 ]
  %.01316 = phi ptr [ %17, %.lr.ph ], [ %1, %9 ]
  %17 = getelementptr inbounds nuw i8, ptr %.01316, i64 1
  %18 = zext i8 %16 to i64
  %19 = getelementptr inbounds nuw [256 x i8], ptr @_ZL15asciiFromEbcdic, i64 0, i64 %18
  %20 = load i8, ptr %19, align 1, !tbaa !3
  %21 = getelementptr inbounds nuw i8, ptr %.018, i64 1
  store i8 %20, ptr %.018, align 1, !tbaa !3
  %22 = add nsw i32 %.11217, -1
  %23 = load i8, ptr %17, align 1, !tbaa !3
  %24 = icmp ne i8 %23, 0
  %25 = icmp samesign ugt i32 %.11217, 1
  %26 = select i1 %24, i1 %25, i1 false
  br i1 %26, label %.lr.ph, label %.preheader, !llvm.loop !24

._crit_edge:                                      ; preds = %.lr.ph22.preheader, %.preheader
  ret ptr %0
}